target datalayout = "e-m:e-p270:32:32-p271:32:32-p272:64:64-i64:64-i128:128-f80:128-n8:16:32:64-S128"
target triple = "x86_64-pc-linux-gnu"

%struct.erf_record = type { i64, i8, i8, i16, i16, i16 }
%struct.wtap = type { ptr, ptr, i8, i32, i32, ptr, ptr, ptr, i32, ptr, ptr, ptr, ptr, ptr, ptr, ptr, ptr, ptr, ptr, i32, i32, ptr, ptr, ptr, ptr }
%struct.wtap_rec = type { i32, i32, i32, %struct.nstime_t, i32, %struct.nstime_t, i8, %union.anon.2, ptr, i8, %struct.Buffer, %struct.Buffer }
%struct.nstime_t = type { i64, i32 }
%union.anon.2 = type { %struct.wtap_packet_header }
%struct.wtap_packet_header = type { i32, i32, i32, i32, %union.wtap_pseudo_header }
%union.wtap_pseudo_header = type { %struct.erf_mc_phdr }
%struct.erf_mc_phdr = type { %struct.erf_phdr, [16 x %struct.erf_ehdr], %union.anon.0 }
%struct.erf_phdr = type { i64, i8, i8, i16, i16, i16 }
%struct.erf_ehdr = type { i64 }
%union.anon.0 = type { i32 }
%struct.Buffer = type { ptr, i64, i64, i64 }

; Function Attrs: null_pointer_is_valid sspstrong uwtable
define internal zeroext i1 @erf_seek_read(ptr noundef %0, i64 noundef %1, ptr noundef %2, ptr noundef %3, ptr noundef %4) #0 {
  %6 = alloca i1, align 1
  %7 = alloca ptr, align 8
  %8 = alloca i64, align 8
  %9 = alloca ptr, align 8
  %10 = alloca ptr, align 8
  %11 = alloca ptr, align 8
  %12 = alloca %struct.erf_record, align 8
  %13 = alloca i32, align 4
  %14 = alloca ptr, align 8
  %15 = alloca i32, align 4
  store ptr %0, ptr %7, align 8
  store i64 %1, ptr %8, align 8
  store ptr %2, ptr %9, align 8
  store ptr %3, ptr %10, align 8
  store ptr %4, ptr %11, align 8
  call void @llvm.lifetime.start.p0(i64 16, ptr %12) #16
  call void @llvm.lifetime.start.p0(i64 4, ptr %13) #16
  call void @llvm.lifetime.start.p0(i64 8, ptr %14) #16
  %16 = load ptr, ptr %7, align 8
  %17 = getelementptr inbounds nuw %struct.wtap, ptr %16, i32 0, i32 1
  %18 = load ptr, ptr %17, align 8
  %19 = load i64, ptr %8, align 8
  %20 = load ptr, ptr %10, align 8
  %21 = call i64 @file_seek(ptr noundef %18, i64 noundef %19, i32 noundef 0, ptr noundef %20)
  %22 = icmp eq i64 %21, -1
  br i1 %22, label %23, label %24

23:                                               ; preds = %5
  store i1 false, ptr %6, align 1
  store i32 1, ptr %15, align 4
  br label %57

24:                                               ; preds = %5
  %25 = call ptr @g_ptr_array_new_with_free_func(ptr noundef @erf_anchor_mapping_destroy)
  store ptr %25, ptr %14, align 8
  br label %26

26:                                               ; preds = %40, %24
  %27 = load ptr, ptr %7, align 8
  %28 = load ptr, ptr %7, align 8
  %29 = getelementptr inbounds nuw %struct.wtap, ptr %28, i32 0, i32 1
  %30 = load ptr, ptr %29, align 8
  %31 = load ptr, ptr %9, align 8
  %32 = load ptr, ptr %10, align 8
  %33 = load ptr, ptr %11, align 8
  %34 = load ptr, ptr %14, align 8
  %35 = call zeroext i1 @erf_read_header(ptr noundef %27, ptr noundef %30, ptr noundef %31, ptr noundef %12, ptr noundef %32, ptr noundef %33, ptr noundef null, ptr noundef %13, ptr noundef %34)
  br i1 %35, label %39, label %36

36:                                               ; preds = %26
  %37 = load ptr, ptr %14, align 8
  %38 = call ptr @g_ptr_array_free(ptr noundef %37, i32 noundef 1)
  store i1 false, ptr %6, align 1
  store i32 1, ptr %15, align 4
  br label %57

39:                                               ; preds = %26
  br label %40

40:                                               ; preds = %39
  %41 = getelementptr inbounds nuw %struct.erf_record, ptr %12, i32 0, i32 1
  %42 = load i8, ptr %41, align 8
  %43 = zext i8 %42 to i32
  %44 = icmp eq i32 %43, 48
  br i1 %44, label %26, label %45, !llvm.loop !11

45:                                               ; preds = %40
  %46 = load ptr, ptr %14, align 8
  %47 = call ptr @g_ptr_array_free(ptr noundef %46, i32 noundef 1)
  %48 = load ptr, ptr %7, align 8
  %49 = getelementptr inbounds nuw %struct.wtap, ptr %48, i32 0, i32 1
  %50 = load ptr, ptr %49, align 8
  %51 = load ptr, ptr %9, align 8
  %52 = getelementptr inbounds nuw %struct.wtap_rec, ptr %51, i32 0, i32 11
  %53 = load i32, ptr %13, align 4
  %54 = load ptr, ptr %10, align 8
  %55 = load ptr, ptr %11, align 8
  %56 = call zeroext i1 @wtap_read_bytes_buffer(ptr noundef %50, ptr noundef %52, i32 noundef %53, ptr noundef %54, ptr noundef %55)
  store i1 %56, ptr %6, align 1
  store i32 1, ptr %15, align 4
  br label %57

57:                                               ; preds = %45, %36, %23
  call void @llvm.lifetime.end.p0(i64 8, ptr %14) #16
  call void @llvm.lifetime.end.p0(i64 4, ptr %13) #16
  call void @llvm.lifetime.end.p0(i64 16, ptr %12) #16
  %58 = load i1, ptr %6, align 1
  ret i1 %58
}