; Function Attrs: null_pointer_is_valid sspstrong uwtable
define internal zeroext i1 @erf_seek_read(ptr noundef %0, i64 noundef %1, ptr noundef %2, ptr noundef %3, ptr noundef %4) #0 {
  %6 = alloca %struct.erf_record, align 8
  %7 = alloca i32, align 4
  call void @llvm.lifetime.start.p0(i64 16, ptr nonnull %6) #16
  call void @llvm.lifetime.start.p0(i64 4, ptr nonnull %7) #16
  %8 = getelementptr inbounds nuw i8, ptr %0, i64 8
  %9 = load ptr, ptr %8, align 8
  %10 = tail call i64 @file_seek(ptr noundef %9, i64 noundef %1, i32 noundef 0, ptr noundef %3)
  %11 = icmp eq i64 %10, -1
  br i1 %11, label %29, label %12

12:                                               ; preds = %5
  %13 = tail call ptr @g_ptr_array_new_with_free_func(ptr noundef nonnull @erf_anchor_mapping_destroy)
  %14 = getelementptr inbounds nuw i8, ptr %6, i64 8
  br label %15

15:                                               ; preds = %20, %12
  %16 = load ptr, ptr %8, align 8
  %17 = call fastcc zeroext i1 @erf_read_header(ptr noundef %0, ptr noundef %16, ptr noundef %2, ptr noundef nonnull %6, ptr noundef %3, ptr noundef %4, ptr noundef null, ptr noundef nonnull %7, ptr noundef %13)
  br i1 %17, label %20, label %18

18:                                               ; preds = %15
  %19 = call ptr @g_ptr_array_free(ptr noundef %13, i32 noundef 1)
  br label %29

20:                                               ; preds = %15
  %21 = load i8, ptr %14, align 8
  %22 = icmp eq i8 %21, 48
  br i1 %22, label %15, label %23, !llvm.loop !24

23:                                               ; preds = %20
  %24 = call ptr @g_ptr_array_free(ptr noundef %13, i32 noundef 1)
  %25 = load ptr, ptr %8, align 8
  %26 = getelementptr inbounds nuw i8, ptr %2, i64 280
  %27 = load i32, ptr %7, align 4
  %28 = call zeroext i1 @wtap_read_bytes_buffer(ptr noundef %25, ptr noundef nonnull %26, i32 noundef %27, ptr noundef %3, ptr noundef %4)
  br label %29

29:                                               ; preds = %5, %23, %18
  %.0 = phi i1 [ %28, %23 ], [ false, %18 ], [ false, %5 ]
  call void @llvm.lifetime.end.p0(i64 4, ptr nonnull %7) #16
  call void @llvm.lifetime.end.p0(i64 16, ptr nonnull %6) #16
  ret i1 %.0
}